target datalayout = "e-m:e-p270:32:32-p271:32:32-p272:64:64-i64:64-i128:128-f80:128-n8:16:32:64-S128"
target triple = "x86_64-pc-linux-gnu"

%"class.euf::egraph" = type { ptr, %class.svector, %"class.euf::etable", %class.region, %class.scoped_ptr_vector, %class.svector.3, %class.svector.5, %class.ptr_vector.7, ptr, ptr, i32, %class.tmp_app, %class.ptr_vector.7, %class.ref_vector, %class.ref_vector.11, %class.vector.16, %class.ptr_vector.7, i32, i8, ptr, ptr, %"class.euf::justification", i32, %class.svector.18, %class.svector.20, %class.ptr_vector.7, %"struct.euf::egraph::stats", i8, i8, i64, %"class.std::vector", %"class.std::function", %"class.std::function.22", %"class.std::function.24", %"class.std::function.26", %"class.std::function.29" }
%class.svector = type { %class.vector }
%class.vector = type { ptr }
%"class.euf::etable" = type { ptr, i8, %class.ptr_vector, %class.map }
%class.ptr_vector = type { %class.vector.0 }
%class.vector.0 = type { ptr }
%class.map = type { %class.table2map }
%class.table2map = type { %class.core_hashtable }
%class.core_hashtable = type <{ ptr, i32, i32, i32, [4 x i8] }>
%class.region = type { ptr, ptr, ptr, ptr, ptr }
%class.scoped_ptr_vector = type { %class.ptr_vector.1 }
%class.ptr_vector.1 = type { %class.vector.2 }
%class.vector.2 = type { ptr }
%class.svector.3 = type { %class.vector.4 }
%class.vector.4 = type { ptr }
%class.svector.5 = type { %class.vector.6 }
%class.vector.6 = type { ptr }
%class.tmp_app = type { i32, ptr }
%class.ref_vector = type { %class.ref_vector_core }
%class.ref_vector_core = type { %class.ref_manager_wrapper, %class.ptr_vector.9 }
%class.ref_manager_wrapper = type { ptr }
%class.ptr_vector.9 = type { %class.vector.10 }
%class.vector.10 = type { ptr }
%class.ref_vector.11 = type { %class.ref_vector_core.12 }
%class.ref_vector_core.12 = type { %class.ref_manager_wrapper.13, %class.ptr_vector.14 }
%class.ref_manager_wrapper.13 = type { ptr }
%class.ptr_vector.14 = type { %class.vector.15 }
%class.vector.15 = type { ptr }
%class.vector.16 = type { ptr }
%"class.euf::justification" = type { i32, %union.anon, %union.anon.17 }
%union.anon = type { ptr }
%union.anon.17 = type { ptr }
%class.svector.18 = type { %class.vector.19 }
%class.vector.19 = type { ptr }
%class.svector.20 = type { %class.vector.21 }
%class.vector.21 = type { ptr }
%class.ptr_vector.7 = type { %class.vector.8 }
%class.vector.8 = type { ptr }
%"struct.euf::egraph::stats" = type { i32, i32, i32, i32, i32, i32 }
%"class.std::vector" = type { %"struct.std::_Vector_base" }
%"struct.std::_Vector_base" = type { %"struct.std::_Vector_base<std::function<void (euf::enode *, euf::enode *)>, std::allocator<std::function<void (euf::enode *, euf::enode *)>>>::_Vector_impl" }
%"struct.std::_Vector_base<std::function<void (euf::enode *, euf::enode *)>, std::allocator<std::function<void (euf::enode *, euf::enode *)>>>::_Vector_impl" = type { %"struct.std::_Vector_base<std::function<void (euf::enode *, euf::enode *)>, std::allocator<std::function<void (euf::enode *, euf::enode *)>>>::_Vector_impl_data" }
%"struct.std::_Vector_base<std::function<void (euf::enode *, euf::enode *)>, std::allocator<std::function<void (euf::enode *, euf::enode *)>>>::_Vector_impl_data" = type { ptr, ptr, ptr }
%"class.std::function" = type { %"class.std::_Function_base", ptr }
%"class.std::_Function_base" = type { %"union.std::_Any_data", ptr }
%"union.std::_Any_data" = type { %"union.std::_Nocopy_types" }
%"union.std::_Nocopy_types" = type { { i64, i64 } }
%"class.std::function.22" = type { %"class.std::_Function_base", ptr }
%"class.std::function.24" = type { %"class.std::_Function_base", ptr }
%"class.std::function.26" = type { %"class.std::_Function_base", ptr }
%"class.std::function.29" = type { %"class.std::_Function_base", ptr }
%"class.euf::enode" = type { ptr, i8, i8, i8, i8, i8, i8, i8, i8, i8, i32, i32, i32, i32, i32, i32, %class.ptr_vector.7, ptr, ptr, ptr, ptr, %class.id_var_list, %"class.euf::justification", %"class.euf::justification", i32, i8, %class.approx_set, %class.approx_set, [0 x ptr] }
%class.id_var_list = type { i32, ptr }
%class.approx_set = type { %class.approx_set_tpl }
%class.approx_set_tpl = type { i64 }
%"class.euf::enode_parents" = type { ptr }

; Function Attrs: mustprogress nounwind uwtable
define linkonce_odr hidden noundef i32 @_ZNK6vectorIPN3euf5enodeELb0EjE4sizeEv(ptr noundef nonnull align 8 dereferenceable(8) %0) #6 comdat align 2 {
  %2 = alloca i32, align 4
  %3 = alloca ptr, align 8
  store ptr %0, ptr %3, align 8, !tbaa !106
  %4 = load ptr, ptr %3, align 8
  %5 = getelementptr inbounds nuw %class.vector.8, ptr %4, i32 0, i32 0
  %6 = load ptr, ptr %5, align 8, !tbaa !108
  %7 = icmp eq ptr %6, null
  br i1 %7, label %8, label %9

8:                                                ; preds = %1
  store i32 0, ptr %2, align 4
  br label %14

9:                                                ; preds = %1
  %10 = getelementptr inbounds nuw %class.vector.8, ptr %4, i32 0, i32 0
  %11 = load ptr, ptr %10, align 8, !tbaa !108
  %12 = getelementptr inbounds i32, ptr %11, i64 -1
  %13 = load i32, ptr %12, align 4, !tbaa !10
  store i32 %13, ptr %2, align 4
  br label %14

14:                                               ; preds = %9, %8
  %15 = load i32, ptr %2, align 4
  ret i32 %15
}

; Function Attrs: mustprogress nounwind uwtable
define linkonce_odr hidden noundef i32 @_ZNK6vectorIbLb0EjE4sizeEv(ptr noundef nonnull align 8 dereferenceable(8) %0) #6 comdat align 2 {
  %2 = alloca i32, align 4
  %3 = alloca ptr, align 8
  store ptr %0, ptr %3, align 8, !tbaa !238
  %4 = load ptr, ptr %3, align 8
  %5 = getelementptr inbounds nuw %class.vector.21, ptr %4, i32 0, i32 0
  %6 = load ptr, ptr %5, align 8, !tbaa !343
  %7 = icmp eq ptr %6, null
  br i1 %7, label %8, label %9

8:                                                ; preds = %1
  store i32 0, ptr %2, align 4
  br label %14

9:                                                ; preds = %1
  %10 = getelementptr inbounds nuw %class.vector.21, ptr %4, i32 0, i32 0
  %11 = load ptr, ptr %10, align 8, !tbaa !343
  %12 = getelementptr inbounds i32, ptr %11, i64 -1
  %13 = load i32, ptr %12, align 4, !tbaa !10
  store i32 %13, ptr %2, align 4
  br label %14

14:                                               ; preds = %9, %8
  %15 = load i32, ptr %2, align 4
  ret i32 %15
}

; Function Attrs: mustprogress nounwind uwtable
define linkonce_odr hidden noundef ptr @_ZNK6vectorIPN3euf5enodeELb0EjE3endEv(ptr noundef nonnull align 8 dereferenceable(8) %0) #6 comdat align 2 {
  %2 = alloca ptr, align 8
  store ptr %0, ptr %2, align 8, !tbaa !106
  %3 = load ptr, ptr %2, align 8
  %4 = getelementptr inbounds nuw %class.vector.8, ptr %3, i32 0, i32 0
  %5 = load ptr, ptr %4, align 8, !tbaa !108
  %6 = call noundef i32 @_ZNK6vectorIPN3euf5enodeELb0EjE4sizeEv(ptr noundef nonnull align 8 dereferenceable(8) %3)
  %7 = zext i32 %6 to i64
  %8 = getelementptr inbounds nuw ptr, ptr %5, i64 %7
  ret ptr %8
}

; Function Attrs: mustprogress nounwind uwtable
define linkonce_odr hidden noundef ptr @_ZNK6vectorIPN3euf5enodeELb0EjE5beginEv(ptr noundef nonnull align 8 dereferenceable(8) %0) #6 comdat align 2 {
  %2 = alloca ptr, align 8
  store ptr %0, ptr %2, align 8, !tbaa !106
  %3 = load ptr, ptr %2, align 8
  %4 = getelementptr inbounds nuw %class.vector.8, ptr %3, i32 0, i32 0
  %5 = load ptr, ptr %4, align 8, !tbaa !108
  ret ptr %5
}

; Function Attrs: mustprogress nounwind uwtable
define linkonce_odr hidden noundef nonnull align 1 dereferenceable(1) ptr @_ZNK6vectorIbLb0EjE3getEjRKb(ptr noundef nonnull align 8 dereferenceable(8) %0, i32 noundef %1, ptr noundef nonnull align 1 dereferenceable(1) %2) #6 comdat align 2 {
  %4 = alloca ptr, align 8
  %5 = alloca ptr, align 8
  %6 = alloca i32, align 4
  %7 = alloca ptr, align 8
  store ptr %0, ptr %5, align 8, !tbaa !238
  store i32 %1, ptr %6, align 4, !tbaa !10
  store ptr %2, ptr %7, align 8, !tbaa !181
  %8 = load ptr, ptr %5, align 8
  %9 = load i32, ptr %6, align 4, !tbaa !10
  %10 = call noundef i32 @_ZNK6vectorIbLb0EjE4sizeEv(ptr noundef nonnull align 8 dereferenceable(8) %8)
  %11 = icmp uge i32 %9, %10
  br i1 %11, label %12, label %14

12:                                               ; preds = %3
  %13 = load ptr, ptr %7, align 8, !tbaa !181
  store ptr %13, ptr %4, align 8
  br label %20

14:                                               ; preds = %3
  %15 = getelementptr inbounds nuw %class.vector.21, ptr %8, i32 0, i32 0
  %16 = load ptr, ptr %15, align 8, !tbaa !343
  %17 = load i32, ptr %6, align 4, !tbaa !10
  %18 = zext i32 %17 to i64
  %19 = getelementptr inbounds nuw i8, ptr %16, i64 %18
  store ptr %19, ptr %4, align 8
  br label %20

20:                                               ; preds = %14, %12
  %21 = load ptr, ptr %4, align 8
  ret ptr %21
}

; Function Attrs: mustprogress nounwind uwtable
define linkonce_odr hidden noundef ptr @_ZNK3euf5enode8get_rootEv(ptr noundef nonnull align 8 dereferenceable(176) %0) #6 comdat align 2 {
  %2 = alloca ptr, align 8
  store ptr %0, ptr %2, align 8, !tbaa !15
  %3 = load ptr, ptr %2, align 8
  %4 = getelementptr inbounds nuw %"class.euf::enode", ptr %3, i32 0, i32 18
  %5 = load ptr, ptr %4, align 8, !tbaa !98
  ret ptr %5
}

; Function Attrs: mustprogress nounwind uwtable
define linkonce_odr hidden noundef ptr @_ZNK3euf5enode7get_argEj(ptr noundef nonnull align 8 dereferenceable(176) %0, i32 noundef %1) #6 comdat align 2 {
  %3 = alloca ptr, align 8
  %4 = alloca i32, align 4
  store ptr %0, ptr %3, align 8, !tbaa !15
  store i32 %1, ptr %4, align 4, !tbaa !10
  %5 = load ptr, ptr %3, align 8
  %6 = getelementptr inbounds nuw %"class.euf::enode", ptr %5, i32 0, i32 28
  %7 = load i32, ptr %4, align 4, !tbaa !10
  %8 = zext i32 %7 to i64
  %9 = getelementptr inbounds nuw [0 x ptr], ptr %6, i64 0, i64 %8
  %10 = load ptr, ptr %9, align 8, !tbaa !15
  ret ptr %10
}

; Function Attrs: mustprogress nounwind uwtable
define linkonce_odr hidden noundef i32 @_ZNK3euf5enode5valueEv(ptr noundef nonnull align 8 dereferenceable(176) %0) #6 comdat align 2 {
  %2 = alloca ptr, align 8
  store ptr %0, ptr %2, align 8, !tbaa !15
  %3 = load ptr, ptr %2, align 8
  %4 = getelementptr inbounds nuw %"class.euf::enode", ptr %3, i32 0, i32 11
  %5 = load i32, ptr %4, align 8, !tbaa !141
  ret i32 %5
}

; Function Attrs: mustprogress nounwind uwtable
define linkonce_odr hidden noundef zeroext i1 @_ZNK3euf5enode11is_equalityEv(ptr noundef nonnull align 8 dereferenceable(176) %0) #6 comdat align 2 {
  %2 = alloca ptr, align 8
  store ptr %0, ptr %2, align 8, !tbaa !15
  %3 = load ptr, ptr %2, align 8
  %4 = getelementptr inbounds nuw %"class.euf::enode", ptr %3, i32 0, i32 8
  %5 = load i8, ptr %4, align 1, !tbaa !187, !range !82, !noundef !83
  %6 = trunc i8 %5 to i1
  ret i1 %6
}

; Function Attrs: mustprogress uwtable
define linkonce_odr hidden noundef ptr @_ZNK3euf13enode_parents3endEv(ptr noundef nonnull align 8 dereferenceable(8) %0) #4 comdat align 2 {
  %2 = alloca ptr, align 8
  store ptr %0, ptr %2, align 8, !tbaa !339
  %3 = load ptr, ptr %2, align 8
  %4 = getelementptr inbounds nuw %"class.euf::enode_parents", ptr %3, i32 0, i32 0
  %5 = load ptr, ptr %4, align 8, !tbaa !341
  %6 = getelementptr inbounds nuw %"class.euf::enode", ptr %5, i32 0, i32 16
  %7 = call noundef ptr @_ZNK6vectorIPN3euf5enodeELb0EjE3endEv(ptr noundef nonnull align 8 dereferenceable(8) %6)
  ret ptr %7
}

; Function Attrs: mustprogress uwtable
define linkonce_odr hidden noundef ptr @_ZNK3euf13enode_parents5beginEv(ptr noundef nonnull align 8 dereferenceable(8) %0) #4 comdat align 2 {
  %2 = alloca ptr, align 8
  store ptr %0, ptr %2, align 8, !tbaa !339
  %3 = load ptr, ptr %2, align 8
  %4 = getelementptr inbounds nuw %"class.euf::enode_parents", ptr %3, i32 0, i32 0
  %5 = load ptr, ptr %4, align 8, !tbaa !341
  %6 = getelementptr inbounds nuw %"class.euf::enode", ptr %5, i32 0, i32 16
  %7 = call noundef ptr @_ZNK6vectorIPN3euf5enodeELb0EjE5beginEv(ptr noundef nonnull align 8 dereferenceable(8) %6)
  ret ptr %7
}

; Function Attrs: mustprogress nounwind uwtable
define linkonce_odr hidden void @_ZN3euf13enode_parentsC2EPKNS_5enodeE(ptr noundef nonnull align 8 dereferenceable(8) %0, ptr noundef %1) unnamed_addr #6 comdat align 2 {
  %3 = alloca ptr, align 8
  %4 = alloca ptr, align 8
  store ptr %0, ptr %3, align 8, !tbaa !339
  store ptr %1, ptr %4, align 8, !tbaa !15
  %5 = load ptr, ptr %3, align 8
  %6 = getelementptr inbounds nuw %"class.euf::enode_parents", ptr %5, i32 0, i32 0
  %7 = load ptr, ptr %4, align 8, !tbaa !15
  store ptr %7, ptr %6, align 8, !tbaa !15
  ret void
}

; Function Attrs: mustprogress uwtable
define hidden noundef zeroext i1 @_ZNK3euf6egraph20th_propagates_diseqsEi(ptr noundef nonnull align 8 dereferenceable(536) %0, i32 noundef %1) #4 align 2 {
  %3 = alloca ptr, align 8
  %4 = alloca i32, align 4
  %5 = alloca i8, align 1
  store ptr %0, ptr %3, align 8, !tbaa !3
  store i32 %1, ptr %4, align 4, !tbaa !10
  %6 = load ptr, ptr %3, align 8
  %7 = getelementptr inbounds nuw %"class.euf::egraph", ptr %6, i32 0, i32 24
  %8 = load i32, ptr %4, align 4, !tbaa !10
  call void @llvm.lifetime.start.p0(i64 1, ptr %5) #3
  store i8 0, ptr %5, align 1, !tbaa !104
  %9 = call noundef nonnull align 1 dereferenceable(1) ptr @_ZNK6vectorIbLb0EjE3getEjRKb(ptr noundef nonnull align 8 dereferenceable(8) %7, i32 noundef %8, ptr noundef nonnull align 1 dereferenceable(1) %5)
  %10 = load i8, ptr %9, align 1, !tbaa !104, !range !82, !noundef !83
  %11 = trunc i8 %10 to i1
  call void @llvm.lifetime.end.p0(i64 1, ptr %5) #3
  ret i1 %11
}

; Function Attrs: mustprogress uwtable
define hidden void @_ZN3euf6egraph13add_th_diseqsEiiPNS_5enodeE(ptr noundef nonnull align 8 dereferenceable(536) %0, i32 noundef %1, i32 noundef %2, ptr noundef %3) #4 align 2 {
  %5 = alloca ptr, align 8
  %6 = alloca i32, align 4
  %7 = alloca i32, align 4
  %8 = alloca ptr, align 8
  %9 = alloca ptr, align 8
  %10 = alloca %"class.euf::enode_parents", align 8
  %11 = alloca ptr, align 8
  %12 = alloca ptr, align 8
  %13 = alloca ptr, align 8
  %14 = alloca ptr, align 8
  %15 = alloca i32, align 4
  store ptr %0, ptr %5, align 8, !tbaa !3
  store i32 %1, ptr %6, align 4, !tbaa !10
  store i32 %2, ptr %7, align 4, !tbaa !10
  store ptr %3, ptr %8, align 8, !tbaa !15
  %16 = load ptr, ptr %5, align 8
  %17 = load i32, ptr %6, align 4, !tbaa !10
  %18 = call noundef zeroext i1 @_ZNK3euf6egraph20th_propagates_diseqsEi(ptr noundef nonnull align 8 dereferenceable(536) %16, i32 noundef %17)
  br i1 %18, label %20, label %19

19:                                               ; preds = %4
  br label %71

20:                                               ; preds = %4
  call void @llvm.lifetime.start.p0(i64 8, ptr %9) #3
  call void @llvm.lifetime.start.p0(i64 8, ptr %10) #3
  %21 = load ptr, ptr %8, align 8, !tbaa !15
  call void @_ZN3euf13enode_parentsC2EPKNS_5enodeE(ptr noundef nonnull align 8 dereferenceable(8) %10, ptr noundef %21)
  store ptr %10, ptr %9, align 8, !tbaa !339
  call void @llvm.lifetime.start.p0(i64 8, ptr %11) #3
  %22 = load ptr, ptr %9, align 8, !tbaa !339
  %23 = call noundef ptr @_ZNK3euf13enode_parents5beginEv(ptr noundef nonnull align 8 dereferenceable(8) %22)
  store ptr %23, ptr %11, align 8, !tbaa !12
  call void @llvm.lifetime.start.p0(i64 8, ptr %12) #3
  %24 = load ptr, ptr %9, align 8, !tbaa !339
  %25 = call noundef ptr @_ZNK3euf13enode_parents3endEv(ptr noundef nonnull align 8 dereferenceable(8) %24)
  store ptr %25, ptr %12, align 8, !tbaa !12
  br label %26

26:                                               ; preds = %68, %20
  %27 = load ptr, ptr %11, align 8, !tbaa !12
  %28 = load ptr, ptr %12, align 8, !tbaa !12
  %29 = icmp ne ptr %27, %28
  br i1 %29, label %31, label %30

30:                                               ; preds = %26
  call void @llvm.lifetime.end.p0(i64 8, ptr %12) #3
  call void @llvm.lifetime.end.p0(i64 8, ptr %11) #3
  call void @llvm.lifetime.end.p0(i64 8, ptr %10) #3
  call void @llvm.lifetime.end.p0(i64 8, ptr %9) #3
  br label %71

31:                                               ; preds = %26
  call void @llvm.lifetime.start.p0(i64 8, ptr %13) #3
  %32 = load ptr, ptr %11, align 8, !tbaa !12
  %33 = load ptr, ptr %32, align 8, !tbaa !15
  store ptr %33, ptr %13, align 8, !tbaa !15
  %34 = load ptr, ptr %13, align 8, !tbaa !15
  %35 = call noundef zeroext i1 @_ZNK3euf5enode11is_equalityEv(ptr noundef nonnull align 8 dereferenceable(176) %34)
  br i1 %35, label %36, label %67

36:                                               ; preds = %31
  %37 = load ptr, ptr %13, align 8, !tbaa !15
  %38 = call noundef i32 @_ZNK3euf5enode5valueEv(ptr noundef nonnull align 8 dereferenceable(176) %37)
  %39 = icmp eq i32 %38, -1
  br i1 %39, label %40, label %67

40:                                               ; preds = %36
  call void @llvm.lifetime.start.p0(i64 8, ptr %14) #3
  store ptr null, ptr %14, align 8, !tbaa !15
  %41 = load ptr, ptr %8, align 8, !tbaa !15
  %42 = load ptr, ptr %13, align 8, !tbaa !15
  %43 = call noundef ptr @_ZNK3euf5enode7get_argEj(ptr noundef nonnull align 8 dereferenceable(176) %42, i32 noundef 0)
  %44 = call noundef ptr @_ZNK3euf5enode8get_rootEv(ptr noundef nonnull align 8 dereferenceable(176) %43)
  %45 = icmp eq ptr %41, %44
  br i1 %45, label %46, label %49

46:                                               ; preds = %40
  %47 = load ptr, ptr %13, align 8, !tbaa !15
  %48 = call noundef ptr @_ZNK3euf5enode7get_argEj(ptr noundef nonnull align 8 dereferenceable(176) %47, i32 noundef 1)
  br label %52

49:                                               ; preds = %40
  %50 = load ptr, ptr %13, align 8, !tbaa !15
  %51 = call noundef ptr @_ZNK3euf5enode7get_argEj(ptr noundef nonnull align 8 dereferenceable(176) %50, i32 noundef 0)
  br label %52

52:                                               ; preds = %49, %46
  %53 = phi ptr [ %48, %46 ], [ %51, %49 ]
  store ptr %53, ptr %14, align 8, !tbaa !15
  %54 = load ptr, ptr %14, align 8, !tbaa !15
  %55 = call noundef ptr @_ZNK3euf5enode8get_rootEv(ptr noundef nonnull align 8 dereferenceable(176) %54)
  store ptr %55, ptr %14, align 8, !tbaa !15
  call void @llvm.lifetime.start.p0(i64 4, ptr %15) #3
  %56 = load ptr, ptr %14, align 8, !tbaa !15
  %57 = load i32, ptr %6, align 4, !tbaa !10
  %58 = call noundef i32 @_ZNK3euf5enode18get_closest_th_varEi(ptr noundef nonnull align 8 dereferenceable(176) %56, i32 noundef %57)
  store i32 %58, ptr %15, align 4, !tbaa !10
  %59 = load i32, ptr %15, align 4, !tbaa !10
  %60 = icmp ne i32 %59, -1
  br i1 %60, label %61, label %66

61:                                               ; preds = %52
  %62 = load i32, ptr %6, align 4, !tbaa !10
  %63 = load i32, ptr %7, align 4, !tbaa !10
  %64 = load i32, ptr %15, align 4, !tbaa !10
  %65 = load ptr, ptr %13, align 8, !tbaa !15
  call void @_ZN3euf6egraph12add_th_diseqEiiiPNS_5enodeE(ptr noundef nonnull align 8 dereferenceable(536) %16, i32 noundef %62, i32 noundef %63, i32 noundef %64, ptr noundef %65)
  br label %66

66:                                               ; preds = %61, %52
  call void @llvm.lifetime.end.p0(i64 4, ptr %15) #3
  call void @llvm.lifetime.end.p0(i64 8, ptr %14) #3
  br label %67

67:                                               ; preds = %66, %36, %31
  call void @llvm.lifetime.end.p0(i64 8, ptr %13) #3
  br label %68

68:                                               ; preds = %67
  %69 = load ptr, ptr %11, align 8, !tbaa !12
  %70 = getelementptr inbounds nuw ptr, ptr %69, i32 1
  store ptr %70, ptr %11, align 8, !tbaa !12
  br label %26

71:                                               ; preds = %19, %30
  ret void
}