; Function Attrs: mustprogress uwtable
define hidden void @_ZN3euf6egraph13add_th_diseqsEiiPNS_5enodeE(ptr noundef nonnull align 8 dereferenceable(536) %0, i32 noundef %1, i32 noundef %2, ptr noundef readonly captures(address) %3) local_unnamed_addr #3 align 2 {
  %5 = getelementptr inbounds nuw i8, ptr %0, i64 296
  %6 = load ptr, ptr %5, align 8, !tbaa !162
  %7 = icmp eq ptr %6, null
  br i1 %7, label %_ZNK3euf6egraph20th_propagates_diseqsEi.exit.thread, label %_ZNK6vectorIbLb0EjE3getEjRKb.exit.i

_ZNK6vectorIbLb0EjE3getEjRKb.exit.i:              ; preds = %4
  %8 = getelementptr inbounds i8, ptr %6, i64 -4
  %9 = load i32, ptr %8, align 4, !tbaa !113
  %.not.i.i = icmp ult i32 %1, %9
  br i1 %.not.i.i, label %_ZNK3euf6egraph20th_propagates_diseqsEi.exit, label %_ZNK3euf6egraph20th_propagates_diseqsEi.exit.thread

_ZNK3euf6egraph20th_propagates_diseqsEi.exit:     ; preds = %_ZNK6vectorIbLb0EjE3getEjRKb.exit.i
  %10 = zext i32 %1 to i64
  %11 = getelementptr inbounds nuw i8, ptr %6, i64 %10
  %.then.val.i = load i8, ptr %11, align 1, !tbaa !179, !range !109, !noundef !110
  %12 = trunc nuw i8 %.then.val.i to i1
  br i1 %12, label %13, label %_ZNK3euf6egraph20th_propagates_diseqsEi.exit.thread

13:                                               ; preds = %_ZNK3euf6egraph20th_propagates_diseqsEi.exit
  %14 = getelementptr inbounds nuw i8, ptr %3, i64 48
  %15 = load ptr, ptr %14, align 8, !tbaa !112
  %16 = icmp eq ptr %15, null
  br i1 %16, label %_ZNK3euf6egraph20th_propagates_diseqsEi.exit.thread, label %_ZNK3euf13enode_parents3endEv.exit

_ZNK3euf13enode_parents3endEv.exit:               ; preds = %13
  %17 = getelementptr inbounds i8, ptr %15, i64 -4
  %18 = load i32, ptr %17, align 4, !tbaa !113
  %19 = zext i32 %18 to i64
  %20 = getelementptr inbounds nuw ptr, ptr %15, i64 %19
  %.not25 = icmp eq i32 %18, 0
  br i1 %.not25, label %_ZNK3euf6egraph20th_propagates_diseqsEi.exit.thread, label %.lr.ph

.lr.ph:                                           ; preds = %_ZNK3euf13enode_parents3endEv.exit, %42
  %.026 = phi ptr [ %43, %42 ], [ %15, %_ZNK3euf13enode_parents3endEv.exit ]
  %21 = load ptr, ptr %.026, align 8, !tbaa !47
  %22 = getelementptr inbounds nuw i8, ptr %21, i64 15
  %23 = load i8, ptr %22, align 1, !tbaa !151, !range !109, !noundef !110
  %24 = trunc nuw i8 %23 to i1
  br i1 %24, label %25, label %42

25:                                               ; preds = %.lr.ph
  %26 = getelementptr inbounds nuw i8, ptr %21, i64 24
  %27 = load i32, ptr %26, align 8, !tbaa !129
  %28 = icmp eq i32 %27, -1
  br i1 %28, label %29, label %42

29:                                               ; preds = %25
  %30 = getelementptr inbounds nuw i8, ptr %21, i64 176
  %31 = load ptr, ptr %30, align 8, !tbaa !47
  %32 = getelementptr inbounds nuw i8, ptr %31, i64 64
  %33 = load ptr, ptr %32, align 8, !tbaa !32
  %34 = icmp eq ptr %3, %33
  br i1 %34, label %35, label %38

35:                                               ; preds = %29
  %36 = getelementptr inbounds nuw i8, ptr %21, i64 184
  %37 = load ptr, ptr %36, align 8, !tbaa !47
  %.phi.trans.insert = getelementptr inbounds nuw i8, ptr %37, i64 64
  %.pre = load ptr, ptr %.phi.trans.insert, align 8, !tbaa !32
  br label %38

38:                                               ; preds = %29, %35
  %39 = phi ptr [ %.pre, %35 ], [ %33, %29 ]
  %40 = tail call noundef i32 @_ZNK3euf5enode18get_closest_th_varEi(ptr noundef nonnull align 8 dereferenceable(176) %39, i32 noundef %1)
  %.not23 = icmp eq i32 %40, -1
  br i1 %.not23, label %42, label %41

41:                                               ; preds = %38
  tail call void @_ZN3euf6egraph12add_th_diseqEiiiPNS_5enodeE(ptr noundef nonnull align 8 dereferenceable(536) %0, i32 noundef %1, i32 noundef %2, i32 noundef %40, ptr noundef nonnull %21)
  br label %42

42:                                               ; preds = %38, %41, %25, %.lr.ph
  %43 = getelementptr inbounds nuw i8, ptr %.026, i64 8
  %.not = icmp eq ptr %43, %20
  br i1 %.not, label %_ZNK3euf6egraph20th_propagates_diseqsEi.exit.thread, label %.lr.ph

_ZNK3euf6egraph20th_propagates_diseqsEi.exit.thread: ; preds = %42, %13, %_ZNK3euf13enode_parents3endEv.exit, %4, %_ZNK6vectorIbLb0EjE3getEjRKb.exit.i, %_ZNK3euf6egraph20th_propagates_diseqsEi.exit
  ret void
}